; Function Attrs: nounwind sspstrong uwtable
define dso_local noundef zeroext i1 @visit_type_BlockdevCacheOptions_members(ptr noundef %v, ptr noundef %obj, ptr noundef %errp) local_unnamed_addr #0 {
entry:
  %call = tail call zeroext i1 @visit_optional(ptr noundef %v, ptr noundef nonnull @.str.61, ptr noundef %obj) #5
  br i1 %call, label %if.then, label %if.end3

if.then:                                          ; preds = %entry
  %direct = getelementptr inbounds nuw i8, ptr %obj, i64 1
  %call1 = tail call zeroext i1 @visit_type_bool(ptr noundef %v, ptr noundef nonnull @.str.61, ptr noundef nonnull %direct, ptr noundef %errp) #5
  br i1 %call1, label %if.end3, label %return

if.end3:                                          ; preds = %if.then, %entry
  %has_no_flush = getelementptr inbounds nuw i8, ptr %obj, i64 2
  %call4 = tail call zeroext i1 @visit_optional(ptr noundef %v, ptr noundef nonnull @.str.62, ptr noundef nonnull %has_no_flush) #5
  br i1 %call4, label %if.then5, label %if.end9

if.then5:                                         ; preds = %if.end3
  %no_flush = getelementptr inbounds nuw i8, ptr %obj, i64 3
  %call6 = tail call zeroext i1 @visit_type_bool(ptr noundef %v, ptr noundef nonnull @.str.62, ptr noundef nonnull %no_flush, ptr noundef %errp) #5
  br i1 %call6, label %if.end9, label %return

if.end9:                                          ; preds = %if.then5, %if.end3
  br label %return

return:                                           ; preds = %if.then5, %if.then, %if.end9
  %retval.0 = phi i1 [ true, %if.end9 ], [ false, %if.then ], [ false, %if.then5 ]
  ret i1 %retval.0
}